; Function Attrs: mustprogress uwtable
define void @cvSet1D(ptr noundef %0, i32 noundef %1, ptr noundef byval(%struct.CvScalar) align 8 %2) local_unnamed_addr #0 personality ptr @__gxx_personality_v0 {
  %4 = alloca i32, align 4
  %5 = alloca i32, align 4
  %6 = alloca %"class.std::__cxx11::basic_string", align 8
  %7 = alloca %"class.std::allocator", align 1
  store i32 %1, ptr %4, align 4, !tbaa !26
  call void @llvm.lifetime.start.p0(i64 4, ptr nonnull %5) #12
  store i32 0, ptr %5, align 4, !tbaa !26
  %.not = icmp eq ptr %0, null
  br i1 %.not, label %.critedge, label %8

8:                                                ; preds = %3
  %9 = load i32, ptr %0, align 8, !tbaa !22
  %10 = and i32 %9, -65536
  switch i32 %10, label %.critedge [
    i32 1111621632, label %11
    i32 1111752704, label %51
  ]

11:                                               ; preds = %8
  %12 = getelementptr inbounds nuw i8, ptr %0, i64 36
  %13 = load i32, ptr %12, align 4, !tbaa !23
  %14 = icmp sgt i32 %13, 0
  br i1 %14, label %15, label %.critedge

15:                                               ; preds = %11
  %16 = getelementptr inbounds nuw i8, ptr %0, i64 32
  %17 = load i32, ptr %16, align 8, !tbaa !23
  %18 = icmp sgt i32 %17, 0
  br i1 %18, label %19, label %.critedge

19:                                               ; preds = %15
  %20 = getelementptr inbounds nuw i8, ptr %0, i64 24
  %21 = load ptr, ptr %20, align 8, !tbaa !23
  %.not25 = icmp eq ptr %21, null
  %22 = and i32 %9, 16384
  %.not26 = icmp eq i32 %22, 0
  %or.cond = or i1 %.not26, %.not25
  br i1 %or.cond, label %.critedge, label %23

23:                                               ; preds = %19
  %24 = and i32 %9, 4095
  store i32 %24, ptr %5, align 4, !tbaa !26
  %25 = add nsw i32 %13, -1
  %26 = add nuw i32 %25, %17
  %.not27 = icmp ult i32 %1, %26
  %27 = mul nuw nsw i32 %17, %13
  %.not28 = icmp ult i32 %1, %27
  %or.cond30 = select i1 %.not27, i1 true, i1 %.not28
  br i1 %or.cond30, label %38, label %28

28:                                               ; preds = %23
  call void @llvm.lifetime.start.p0(i64 32, ptr nonnull %6) #12
  call void @llvm.lifetime.start.p0(i64 1, ptr nonnull %7) #12
  call void @_ZNSt7__cxx1112basic_stringIcSt11char_traitsIcESaIcEEC2EPKcRKS3_(ptr noundef nonnull align 8 dereferenceable(32) %6, ptr noundef nonnull @.str.42, ptr noundef nonnull align 1 dereferenceable(1) %7)
  invoke void @_ZN2cv5errorEiRKNSt7__cxx1112basic_stringIcSt11char_traitsIcESaIcEEEPKcS9_i(i32 noundef -211, ptr noundef nonnull align 8 dereferenceable(32) %6, ptr noundef nonnull @__func__.cvSet1D, ptr noundef nonnull @.str.1, i32 noundef 2179) #13
          to label %29 unwind label %30

29:                                               ; preds = %28
  unreachable

30:                                               ; preds = %28
  %31 = landingpad { ptr, i32 }
          cleanup
  %32 = load ptr, ptr %6, align 8, !tbaa !3
  %33 = getelementptr inbounds nuw i8, ptr %6, i64 16
  %34 = icmp eq ptr %32, %33
  br i1 %34, label %_ZNKSt7__cxx1112basic_stringIcSt11char_traitsIcESaIcEE11_M_is_localEv.exit.thread.i.i, label %_ZNKSt7__cxx1112basic_stringIcSt11char_traitsIcESaIcEE11_M_is_localEv.exit.i.i

_ZNKSt7__cxx1112basic_stringIcSt11char_traitsIcESaIcEE11_M_is_localEv.exit.thread.i.i: ; preds = %30
  %35 = getelementptr inbounds nuw i8, ptr %6, i64 8
  %36 = load i64, ptr %35, align 8, !tbaa !11
  %37 = icmp ult i64 %36, 16
  call void @llvm.assume(i1 %37)
  br label %_ZNSt7__cxx1112basic_stringIcSt11char_traitsIcESaIcEED2Ev.exit

_ZNKSt7__cxx1112basic_stringIcSt11char_traitsIcESaIcEE11_M_is_localEv.exit.i.i: ; preds = %30
  call void @_ZdlPv(ptr noundef %32) #14
  br label %_ZNSt7__cxx1112basic_stringIcSt11char_traitsIcESaIcEED2Ev.exit

_ZNSt7__cxx1112basic_stringIcSt11char_traitsIcESaIcEED2Ev.exit: ; preds = %_ZNKSt7__cxx1112basic_stringIcSt11char_traitsIcESaIcEE11_M_is_localEv.exit.i.i, %_ZNKSt7__cxx1112basic_stringIcSt11char_traitsIcESaIcEE11_M_is_localEv.exit.thread.i.i
  call void @llvm.lifetime.end.p0(i64 1, ptr nonnull %7) #12
  call void @llvm.lifetime.end.p0(i64 32, ptr nonnull %6) #12
  call void @llvm.lifetime.end.p0(i64 4, ptr nonnull %5) #12
  resume { ptr, i32 } %31

38:                                               ; preds = %23
  %39 = lshr i32 %9, 3
  %40 = and i32 %39, 511
  %41 = add nuw nsw i32 %40, 1
  %42 = shl i32 %9, 2
  %43 = and i32 %42, 28
  %44 = lshr i32 675553809, %43
  %45 = and i32 %44, 15
  %46 = mul nuw nsw i32 %45, %41
  %47 = zext nneg i32 %1 to i64
  %48 = zext nneg i32 %46 to i64
  %49 = mul nuw nsw i64 %48, %47
  %50 = getelementptr inbounds nuw i8, ptr %21, i64 %49
  br label %58

51:                                               ; preds = %8
  %52 = getelementptr inbounds nuw i8, ptr %0, i64 4
  %53 = load i32, ptr %52, align 4, !tbaa !84
  %54 = icmp sgt i32 %53, 1
  br i1 %54, label %.critedge, label %56

.critedge:                                        ; preds = %8, %19, %15, %11, %3, %51
  %55 = call ptr @cvPtr1D(ptr noundef %0, i32 noundef %1, ptr noundef nonnull %5)
  br label %58

56:                                               ; preds = %51
  %57 = call fastcc noundef ptr @_ZL13icvGetNodePtrP11CvSparseMatPKiPiiPj(ptr noundef %0, ptr noundef nonnull %4, ptr noundef nonnull %5, i32 noundef -1, ptr noundef null)
  br label %58

58:                                               ; preds = %.critedge, %56, %38
  %.022 = phi ptr [ %50, %38 ], [ %55, %.critedge ], [ %57, %56 ]
  %59 = load i32, ptr %5, align 4, !tbaa !26
  call void @cvScalarToRawData(ptr noundef nonnull %2, ptr noundef %.022, i32 noundef %59, i32 noundef 0)
  call void @llvm.lifetime.end.p0(i64 4, ptr nonnull %5) #12
  ret void
}